Certificate:
    Data:
        Version: 3 (0x2)
        Serial Number: 1 (0x1)
        Signature Algorithm: sha256WithRSAEncryption
        Issuer: CN=QUIC Server Root CA
        Validity
            Not Before: Dec  4 18:41:46 2020 GMT
            Not After : Dec  7 18:41:46 2020 GMT
        Subject: C=US, ST=California, L=Mountain View, O=QUIC Server, CN=127.0.0.1
        Subject Public Key Info:
            Public Key Algorithm: rsaEncryption
                RSA Public-Key: (2048 bit)
                Modulus:
                    00:e4:66:31:c2:54:f4:c8:e3:67:60:f4:5d:6a:e9:
                    9f:e4:2f:96:ac:38:a6:34:aa:e7:fd:4f:ab:13:8e:
                    58:0e:b9:db:57:dd:c5:85:e9:20:a3:3f:e0:60:b7:
                    6a:0a:93:c7:15:e9:27:c8:01:fb:de:72:45:83:d8:
                    1d:c7:05:87:8d:92:2a:25:5c:55:dc:56:bb:f7:7d:
                    b9:58:0a:f6:e4:38:33:f7:06:22:c3:9e:5d:47:aa:
                    ca:0b:8c:f3:a2:04:0a:74:e0:1a:e2:b6:b7:d6:0e:
                    0f:ed:81:a4:05:a0:d0:21:f6:e9:f9:3c:46:06:be:
                    7a:ad:c6:0a:73:60:ce:02:b2:f5:c2:f9:ac:f0:1e:
                    aa:f1:91:42:78:5b:f1:61:98:ca:19:c4:ea:ca:8f:
                    ab:fc:0f:53:aa:31:3b:3a:3b:2b:0f:fa:47:0b:b6:
                    99:32:46:8f:c9:45:ad:b1:15:02:d9:ed:f3:30:32:
                    76:13:f3:29:f3:43:4c:f6:fe:8f:31:05:bd:7a:51:
                    d5:43:f4:9c:7e:95:92:a5:ae:ed:1c:c8:de:ab:74:
                    f7:43:79:4a:c3:c2:48:9e:6c:e7:46:77:fe:31:80:
                    f3:98:d8:8f:11:7e:cf:bc:85:c1:3d:9c:6b:02:cd:
                    16:b6:54:e3:94:ba:d9:c5:81:56:77:4c:bf:7e:89:
                    c6:2f
                Exponent: 65537 (0x10001)
        X509v3 extensions:
            X509v3 Basic Constraints: critical
                CA:FALSE
            X509v3 Subject Key Identifier: 
                E2:54:12:34:EA:17:43:EB:5B:B2:2E:81:22:31:7D:5E:37:2F:20:2B
            X509v3 Authority Key Identifier: 
                keyid:2B:2C:E3:3E:4A:87:FD:5E:E4:A1:D1:3E:CF:34:62:7A:DC:95:E6:C4

            X509v3 Extended Key Usage: 
                TLS Web Server Authentication, TLS Web Client Authentication
            X509v3 Subject Alternative Name: 
                DNS:www.example.org, DNS:mail.example.org, DNS:mail.example.com, IP Address:127.0.0.1
    Signature Algorithm: sha256WithRSAEncryption
         67:a1:71:01:c0:09:21:e7:c9:c6:56:4a:70:f5:2b:1d:e4:b7:
         2f:af:30:8a:d0:f6:1e:e0:a1:b9:74:e9:4c:96:f8:a7:ad:28:
         25:aa:10:c0:60:16:52:57:81:ef:32:d0:da:37:10:14:8d:8c:
         b8:3f:6e:f7:52:3c:cd:16:55:a3:59:82:6b:da:f3:b3:b4:84:
         7c:27:0a:af:8d:fb:84:ff:51:72:e1:d9:e6:7b:02:7a:9c:7e:
         d9:58:e6:13:c1:70:d6:b4:15:c8:d8:02:a9:81:78:81:99:88:
         ed:5e:e0:47:b7:0b:0b:f2:7e:71:d5:a8:d7:d9:f7:75:79:c0:
         d9:ad:e8:14:ea:b4:f8:14:79:50:54:2a:82:c3:74:f5:78:bd:
         5a:ba:01:70:9c:24:11:17:92:7f:e5:b7:39:45:14:a2:5e:97:
         bb:0a:14:a3:9e:ad:02:80:3d:5b:1c:9c:ee:55:78:da:32:b9:
         09:0e:48:3f:97:a9:d5:f2:ea:ef:dd:fa:e3:f4:d9:24:5d:45:
         2e:a4:10:fc:aa:0b:d5:06:44:aa:4e:e3:74:c4:bf:a0:27:11:
         39:c3:5e:77:e6:c2:b9:a8:2f:dd:82:b0:5c:6e:8b:14:11:a5:
         a5:5a:a0:25:86:f6:4f:68:8a:7b:d7:6e:3c:28:80:01:2a:a5:
         dd:dc:24:ac
-----BEGIN CERTIFICATE-----
MIIDtDCCApygAwIBAgIBATANBgkqhkiG9w0BAQsFADAeMRwwGgYDVQQDDBNRVUlD
IFNlcnZlciBSb290IENBMB4XDTIwMTIwNDE4NDE0NloXDTIwMTIwNzE4NDE0Nlow
ZDELMAkGA1UEBhMCVVMxEzARBgNVBAgMCkNhbGlmb3JuaWExFjAUBgNVBAcMDU1v
dW50YWluIFZpZXcxFDASBgNVBAoMC1FVSUMgU2VydmVyMRIwEAYDVQQDDAkxMjcu
MC4wLjEwggEiMA0GCSqGSIb3DQEBAQUAA4IBDwAwggEKAoIBAQDkZjHCVPTI42dg
9F1q6Z/kL5asOKY0quf9T6sTjlgOudtX3cWF6SCjP+Bgt2oKk8cV6SfIAfveckWD
2B3HBYeNkiolXFXcVrv3fblYCvbkODP3BiLDnl1HqsoLjPOiBAp04BritrfWDg/t
gaQFoNAh9un5PEYGvnqtxgpzYM4CsvXC+azwHqrxkUJ4W/FhmMoZxOrKj6v8D1Oq
MTs6OysP+kcLtpkyRo/JRa2xFQLZ7fMwMnYT8ynzQ0z2/o8xBb16UdVD9Jx+lZKl
ru0cyN6rdPdDeUrDwkiebOdGd/4xgPOY2I8Rfs+8hcE9nGsCzRa2VOOUutnFgVZ3
TL9+icYvAgMBAAGjgbYwgbMwDAYDVR0TAQH/BAIwADAdBgNVHQ4EFgQU4lQSNOoX
Q+tbsi6BIjF9XjcvICswHwYDVR0jBBgwFoAUKyzjPkqH/V7kodE+zzRietyV5sQw
HQYDVR0lBBYwFAYIKwYBBQUHAwEGCCsGAQUFBwMCMEQGA1UdEQQ9MDuCD3d3dy5l
eGFtcGxlLm9yZ4IQbWFpbC5leGFtcGxlLm9yZ4IQbWFpbC5leGFtcGxlLmNvbYcE
fwAAATANBgkqhkiG9w0BAQsFAAOCAQEAZ6FxAcAJIefJxlZKcPUrHeS3L68witD2
HuChuXTpTJb4p60oJaoQwGAWUleB7zLQ2jcQFI2MuD9u91I8zRZVo1mCa9rzs7SE
fCcKr437hP9RcuHZ5nsCepx+2VjmE8Fw1rQVyNgCqYF4gZmI7V7gR7cLC/J+cdWo
19n3dXnA2a3oFOq0+BR5UFQqgsN09Xi9WroBcJwkEReSf+W3OUUUol6XuwoUo56t
AoA9Wxyc7lV42jK5CQ5IP5ep1fLq79364/TZJF1FLqQQ/KoL1QZEqk7jdMS/oCcR
OcNed+bCuagv3YKwXG6LFBGlpVqgJYb2T2iKe9duPCiAASql3dwkrA==
-----END CERTIFICATE-----
